target datalayout = "e-m:e-p270:32:32-p271:32:32-p272:64:64-i64:64-i128:128-f80:128-n8:16:32:64-S128"
target triple = "x86_64-pc-linux-gnu"

%struct._object = type { %union.anon, ptr }
%union.anon = type { i64 }
%struct.PyVarObject = type { %struct._object, i64 }
%struct.anon = type { i32, i32 }
%struct.PyBytesObject = type { %struct.PyVarObject, i64, [1 x i8] }
%struct.XMLParserObject = type { %struct._object, ptr, ptr, ptr, ptr, ptr, ptr, ptr, ptr, ptr, ptr, ptr, ptr, ptr, ptr, ptr }

@.str.133 = private unnamed_addr constant [7 x i8] c"strict\00", align 1

; Function Attrs: alwaysinline nounwind uwtable
define internal void @Py_INCREF(ptr noundef %0) #4 {
  %2 = alloca ptr, align 8
  %3 = alloca i32, align 4
  %4 = alloca i32, align 4
  store ptr %0, ptr %2, align 8, !tbaa !3
  call void @llvm.lifetime.start.p0(i64 4, ptr %3) #8
  %5 = load ptr, ptr %2, align 8, !tbaa !3
  %6 = getelementptr inbounds nuw %struct._object, ptr %5, i32 0, i32 0
  %7 = getelementptr inbounds nuw %struct.anon, ptr %6, i32 0, i32 0
  %8 = load i32, ptr %7, align 8, !tbaa !32
  store i32 %8, ptr %3, align 4, !tbaa !13
  %9 = load i32, ptr %3, align 4, !tbaa !13
  %10 = icmp slt i32 %9, 0
  br i1 %10, label %11, label %12

11:                                               ; preds = %1
  store i32 1, ptr %4, align 4
  br label %18

12:                                               ; preds = %1
  %13 = load i32, ptr %3, align 4, !tbaa !13
  %14 = add i32 %13, 1
  %15 = load ptr, ptr %2, align 8, !tbaa !3
  %16 = getelementptr inbounds nuw %struct._object, ptr %15, i32 0, i32 0
  %17 = getelementptr inbounds nuw %struct.anon, ptr %16, i32 0, i32 0
  store i32 %14, ptr %17, align 8, !tbaa !32
  store i32 0, ptr %4, align 4
  br label %18

18:                                               ; preds = %12, %11
  call void @llvm.lifetime.end.p0(i64 4, ptr %3) #8
  %19 = load i32, ptr %4, align 4
  switch i32 %19, label %21 [
    i32 0, label %20
    i32 1, label %20
  ]

20:                                               ; preds = %18, %18
  ret void

21:                                               ; preds = %18
  unreachable
}

; Function Attrs: alwaysinline nounwind uwtable
define internal i32 @_Py_IsImmortal(ptr noundef %0) #4 {
  %2 = alloca ptr, align 8
  store ptr %0, ptr %2, align 8, !tbaa !3
  %3 = load ptr, ptr %2, align 8, !tbaa !3
  %4 = getelementptr inbounds nuw %struct._object, ptr %3, i32 0, i32 0
  %5 = getelementptr inbounds nuw %struct.anon, ptr %4, i32 0, i32 0
  %6 = load i32, ptr %5, align 8, !tbaa !32
  %7 = icmp slt i32 %6, 0
  %8 = zext i1 %7 to i32
  ret i32 %8
}

; Function Attrs: inlinehint nounwind uwtable
define internal void @Py_XINCREF(ptr noundef %0) #3 {
  %2 = alloca ptr, align 8
  store ptr %0, ptr %2, align 8, !tbaa !3
  %3 = load ptr, ptr %2, align 8, !tbaa !3
  %4 = icmp ne ptr %3, null
  br i1 %4, label %5, label %7

5:                                                ; preds = %1
  %6 = load ptr, ptr %2, align 8, !tbaa !3
  call void @Py_INCREF(ptr noundef %6)
  br label %7

7:                                                ; preds = %5, %1
  ret void
}

; Function Attrs: inlinehint nounwind uwtable
define internal ptr @_Py_NewRef(ptr noundef %0) #3 {
  %2 = alloca ptr, align 8
  store ptr %0, ptr %2, align 8, !tbaa !3
  %3 = load ptr, ptr %2, align 8, !tbaa !3
  call void @Py_INCREF(ptr noundef %3)
  %4 = load ptr, ptr %2, align 8, !tbaa !3
  ret ptr %4
}

; Function Attrs: inlinehint nounwind uwtable
define internal ptr @PyBytes_AS_STRING(ptr noundef %0) #3 {
  %2 = alloca ptr, align 8
  store ptr %0, ptr %2, align 8, !tbaa !3
  %3 = load ptr, ptr %2, align 8, !tbaa !3
  %4 = getelementptr inbounds nuw %struct.PyBytesObject, ptr %3, i32 0, i32 2
  %5 = getelementptr inbounds [1 x i8], ptr %4, i64 0, i64 0
  ret ptr %5
}

; Function Attrs: alwaysinline nounwind uwtable
define internal void @Py_DECREF(ptr noundef %0) #4 {
  %2 = alloca ptr, align 8
  store ptr %0, ptr %2, align 8, !tbaa !3
  %3 = load ptr, ptr %2, align 8, !tbaa !3
  %4 = call i32 @_Py_IsImmortal(ptr noundef %3)
  %5 = icmp ne i32 %4, 0
  br i1 %5, label %6, label %7

6:                                                ; preds = %1
  br label %16

7:                                                ; preds = %1
  %8 = load ptr, ptr %2, align 8, !tbaa !3
  %9 = getelementptr inbounds nuw %struct._object, ptr %8, i32 0, i32 0
  %10 = getelementptr inbounds nuw %struct.anon, ptr %9, i32 0, i32 0
  %11 = load i32, ptr %10, align 8, !tbaa !32
  %12 = add i32 %11, -1
  store i32 %12, ptr %10, align 8, !tbaa !32
  %13 = icmp eq i32 %12, 0
  br i1 %13, label %14, label %16

14:                                               ; preds = %7
  %15 = load ptr, ptr %2, align 8, !tbaa !3
  call void @_Py_Dealloc(ptr noundef %15)
  br label %16

16:                                               ; preds = %6, %14, %7
  ret void
}

; Function Attrs: inlinehint nounwind uwtable
define internal ptr @_Py_XNewRef(ptr noundef %0) #3 {
  %2 = alloca ptr, align 8
  store ptr %0, ptr %2, align 8, !tbaa !3
  %3 = load ptr, ptr %2, align 8, !tbaa !3
  call void @Py_XINCREF(ptr noundef %3)
  %4 = load ptr, ptr %2, align 8, !tbaa !3
  ret ptr %4
}

; Function Attrs: nounwind uwtable
define internal ptr @makeuniversal(ptr noundef %0, ptr noundef %1) #0 {
  %3 = alloca ptr, align 8
  %4 = alloca ptr, align 8
  %5 = alloca ptr, align 8
  %6 = alloca i64, align 8
  %7 = alloca ptr, align 8
  %8 = alloca ptr, align 8
  %9 = alloca i32, align 4
  %10 = alloca ptr, align 8
  %11 = alloca ptr, align 8
  %12 = alloca i64, align 8
  store ptr %0, ptr %4, align 8, !tbaa !8
  store ptr %1, ptr %5, align 8, !tbaa !139
  call void @llvm.lifetime.start.p0(i64 8, ptr %6) #8
  %13 = load ptr, ptr %5, align 8, !tbaa !139
  %14 = call i64 @strlen(ptr noundef %13) #9
  store i64 %14, ptr %6, align 8, !tbaa !30
  call void @llvm.lifetime.start.p0(i64 8, ptr %7) #8
  call void @llvm.lifetime.start.p0(i64 8, ptr %8) #8
  %15 = load ptr, ptr %5, align 8, !tbaa !139
  %16 = load i64, ptr %6, align 8, !tbaa !30
  %17 = call ptr @PyBytes_FromStringAndSize(ptr noundef %15, i64 noundef %16)
  store ptr %17, ptr %7, align 8, !tbaa !3
  %18 = load ptr, ptr %7, align 8, !tbaa !3
  %19 = icmp ne ptr %18, null
  br i1 %19, label %21, label %20

20:                                               ; preds = %2
  store ptr null, ptr %3, align 8
  store i32 1, ptr %9, align 4
  br label %105

21:                                               ; preds = %2
  %22 = load ptr, ptr %4, align 8, !tbaa !8
  %23 = getelementptr inbounds nuw %struct.XMLParserObject, ptr %22, i32 0, i32 4
  %24 = load ptr, ptr %23, align 8, !tbaa !170
  %25 = load ptr, ptr %7, align 8, !tbaa !3
  %26 = call ptr @PyDict_GetItemWithError(ptr noundef %24, ptr noundef %25)
  %27 = call ptr @_Py_XNewRef(ptr noundef %26)
  store ptr %27, ptr %8, align 8, !tbaa !3
  %28 = load ptr, ptr %8, align 8, !tbaa !3
  %29 = icmp eq ptr %28, null
  br i1 %29, label %30, label %102

30:                                               ; preds = %21
  %31 = call ptr @PyErr_Occurred()
  %32 = icmp ne ptr %31, null
  br i1 %32, label %102, label %33

33:                                               ; preds = %30
  call void @llvm.lifetime.start.p0(i64 8, ptr %10) #8
  call void @llvm.lifetime.start.p0(i64 8, ptr %11) #8
  call void @llvm.lifetime.start.p0(i64 8, ptr %12) #8
  store i64 0, ptr %12, align 8, !tbaa !30
  br label %34

34:                                               ; preds = %47, %33
  %35 = load i64, ptr %12, align 8, !tbaa !30
  %36 = load i64, ptr %6, align 8, !tbaa !30
  %37 = icmp slt i64 %35, %36
  br i1 %37, label %38, label %50

38:                                               ; preds = %34
  %39 = load ptr, ptr %5, align 8, !tbaa !139
  %40 = load i64, ptr %12, align 8, !tbaa !30
  %41 = getelementptr i8, ptr %39, i64 %40
  %42 = load i8, ptr %41, align 1, !tbaa !32
  %43 = sext i8 %42 to i32
  %44 = icmp eq i32 %43, 125
  br i1 %44, label %45, label %46

45:                                               ; preds = %38
  br label %50

46:                                               ; preds = %38
  br label %47

47:                                               ; preds = %46
  %48 = load i64, ptr %12, align 8, !tbaa !30
  %49 = add i64 %48, 1
  store i64 %49, ptr %12, align 8, !tbaa !30
  br label %34, !llvm.loop !203

50:                                               ; preds = %45, %34
  %51 = load i64, ptr %12, align 8, !tbaa !30
  %52 = load i64, ptr %6, align 8, !tbaa !30
  %53 = icmp ne i64 %51, %52
  br i1 %53, label %54, label %73

54:                                               ; preds = %50
  %55 = load i64, ptr %6, align 8, !tbaa !30
  %56 = add i64 %55, 1
  %57 = call ptr @PyBytes_FromStringAndSize(ptr noundef null, i64 noundef %56)
  store ptr %57, ptr %10, align 8, !tbaa !3
  %58 = load ptr, ptr %10, align 8, !tbaa !3
  %59 = icmp eq ptr %58, null
  br i1 %59, label %60, label %62

60:                                               ; preds = %54
  %61 = load ptr, ptr %7, align 8, !tbaa !3
  call void @Py_DECREF(ptr noundef %61)
  store ptr null, ptr %3, align 8
  store i32 1, ptr %9, align 4
  br label %99

62:                                               ; preds = %54
  %63 = load ptr, ptr %10, align 8, !tbaa !3
  %64 = call ptr @PyBytes_AS_STRING(ptr noundef %63)
  store ptr %64, ptr %11, align 8, !tbaa !139
  %65 = load ptr, ptr %11, align 8, !tbaa !139
  %66 = getelementptr i8, ptr %65, i64 0
  store i8 123, ptr %66, align 1, !tbaa !32
  %67 = load ptr, ptr %11, align 8, !tbaa !139
  %68 = getelementptr i8, ptr %67, i64 1
  %69 = load ptr, ptr %5, align 8, !tbaa !139
  %70 = load i64, ptr %6, align 8, !tbaa !30
  call void @llvm.memcpy.p0.p0.i64(ptr align 1 %68, ptr align 1 %69, i64 %70, i1 false)
  %71 = load i64, ptr %6, align 8, !tbaa !30
  %72 = add i64 %71, 1
  store i64 %72, ptr %6, align 8, !tbaa !30
  br label %76

73:                                               ; preds = %50
  %74 = load ptr, ptr %7, align 8, !tbaa !3
  %75 = call ptr @_Py_NewRef(ptr noundef %74)
  store ptr %75, ptr %10, align 8, !tbaa !3
  br label %76

76:                                               ; preds = %73, %62
  %77 = load ptr, ptr %10, align 8, !tbaa !3
  %78 = call ptr @PyBytes_AS_STRING(ptr noundef %77)
  store ptr %78, ptr %11, align 8, !tbaa !139
  %79 = load ptr, ptr %11, align 8, !tbaa !139
  %80 = load i64, ptr %6, align 8, !tbaa !30
  %81 = call ptr @PyUnicode_DecodeUTF8(ptr noundef %79, i64 noundef %80, ptr noundef @.str.133)
  store ptr %81, ptr %8, align 8, !tbaa !3
  %82 = load ptr, ptr %10, align 8, !tbaa !3
  call void @Py_DECREF(ptr noundef %82)
  %83 = load ptr, ptr %8, align 8, !tbaa !3
  %84 = icmp ne ptr %83, null
  br i1 %84, label %87, label %85

85:                                               ; preds = %76
  %86 = load ptr, ptr %7, align 8, !tbaa !3
  call void @Py_DECREF(ptr noundef %86)
  store ptr null, ptr %3, align 8
  store i32 1, ptr %9, align 4
  br label %99

87:                                               ; preds = %76
  %88 = load ptr, ptr %4, align 8, !tbaa !8
  %89 = getelementptr inbounds nuw %struct.XMLParserObject, ptr %88, i32 0, i32 4
  %90 = load ptr, ptr %89, align 8, !tbaa !170
  %91 = load ptr, ptr %7, align 8, !tbaa !3
  %92 = load ptr, ptr %8, align 8, !tbaa !3
  %93 = call i32 @PyDict_SetItem(ptr noundef %90, ptr noundef %91, ptr noundef %92)
  %94 = icmp slt i32 %93, 0
  br i1 %94, label %95, label %98

95:                                               ; preds = %87
  %96 = load ptr, ptr %7, align 8, !tbaa !3
  call void @Py_DECREF(ptr noundef %96)
  %97 = load ptr, ptr %8, align 8, !tbaa !3
  call void @Py_DECREF(ptr noundef %97)
  store ptr null, ptr %3, align 8
  store i32 1, ptr %9, align 4
  br label %99

98:                                               ; preds = %87
  store i32 0, ptr %9, align 4
  br label %99

99:                                               ; preds = %98, %95, %85, %60
  call void @llvm.lifetime.end.p0(i64 8, ptr %12) #8
  call void @llvm.lifetime.end.p0(i64 8, ptr %11) #8
  call void @llvm.lifetime.end.p0(i64 8, ptr %10) #8
  %100 = load i32, ptr %9, align 4
  switch i32 %100, label %105 [
    i32 0, label %101
  ]

101:                                              ; preds = %99
  br label %102

102:                                              ; preds = %101, %30, %21
  %103 = load ptr, ptr %7, align 8, !tbaa !3
  call void @Py_DECREF(ptr noundef %103)
  %104 = load ptr, ptr %8, align 8, !tbaa !3
  store ptr %104, ptr %3, align 8
  store i32 1, ptr %9, align 4
  br label %105

105:                                              ; preds = %102, %99, %20
  call void @llvm.lifetime.end.p0(i64 8, ptr %8) #8
  call void @llvm.lifetime.end.p0(i64 8, ptr %7) #8
  call void @llvm.lifetime.end.p0(i64 8, ptr %6) #8
  %106 = load ptr, ptr %3, align 8
  ret ptr %106
}