; Function Attrs: nounwind uwtable
define internal fastcc ptr @makeuniversal(ptr noundef readonly captures(none) %0, ptr noundef %1) unnamed_addr #0 {
  %3 = tail call i64 @strlen(ptr noundef nonnull dereferenceable(1) %1) #13
  %4 = tail call ptr @PyBytes_FromStringAndSize(ptr noundef nonnull %1, i64 noundef %3) #12
  %.not = icmp eq ptr %4, null
  br i1 %.not, label %Py_DECREF.exit, label %5

5:                                                ; preds = %2
  %6 = getelementptr inbounds nuw i8, ptr %0, i64 40
  %7 = load ptr, ptr %6, align 8, !tbaa !164
  %8 = tail call ptr @PyDict_GetItemWithError(ptr noundef %7, ptr noundef nonnull %4) #12
  %.not.i.i = icmp eq ptr %8, null
  br i1 %.not.i.i, label %_Py_XNewRef.exit, label %9

9:                                                ; preds = %5
  %10 = load i32, ptr %8, align 8, !tbaa !21
  %11 = icmp slt i32 %10, 0
  br i1 %11, label %Py_DECREF.exit64, label %12

12:                                               ; preds = %9
  %13 = add nuw i32 %10, 1
  store i32 %13, ptr %8, align 8, !tbaa !21
  br label %Py_DECREF.exit64

_Py_XNewRef.exit:                                 ; preds = %5
  %14 = tail call ptr @PyErr_Occurred() #12
  %.not52 = icmp eq ptr %14, null
  br i1 %.not52, label %.preheader, label %Py_DECREF.exit64

.preheader:                                       ; preds = %_Py_XNewRef.exit
  %15 = icmp sgt i64 %3, 0
  br i1 %15, label %.lr.ph, label %._crit_edge

.lr.ph:                                           ; preds = %.preheader, %19
  %.072 = phi i64 [ %20, %19 ], [ 0, %.preheader ]
  %16 = getelementptr i8, ptr %1, i64 %.072
  %17 = load i8, ptr %16, align 1, !tbaa !21
  %18 = icmp eq i8 %17, 125
  br i1 %18, label %._crit_edge, label %19

19:                                               ; preds = %.lr.ph
  %20 = add nuw nsw i64 %.072, 1
  %exitcond.not = icmp eq i64 %20, %3
  br i1 %exitcond.not, label %._crit_edge.thread, label %.lr.ph, !llvm.loop !195

._crit_edge:                                      ; preds = %.lr.ph, %.preheader
  %.0.lcssa = phi i64 [ 0, %.preheader ], [ %.072, %.lr.ph ]
  %.not53 = icmp eq i64 %.0.lcssa, %3
  br i1 %.not53, label %._crit_edge.thread, label %21

21:                                               ; preds = %._crit_edge
  %22 = add i64 %3, 1
  %23 = tail call ptr @PyBytes_FromStringAndSize(ptr noundef null, i64 noundef %22) #12
  %24 = icmp eq ptr %23, null
  br i1 %24, label %25, label %30

25:                                               ; preds = %21
  %26 = load i32, ptr %4, align 8, !tbaa !21
  %.not.i63 = icmp sgt i32 %26, -1
  br i1 %.not.i63, label %27, label %Py_DECREF.exit

27:                                               ; preds = %25
  %28 = add nsw i32 %26, -1
  store i32 %28, ptr %4, align 8, !tbaa !21
  %29 = icmp eq i32 %28, 0
  br i1 %29, label %Py_DECREF.exit.sink.split, label %Py_DECREF.exit

30:                                               ; preds = %21
  %31 = getelementptr inbounds nuw i8, ptr %23, i64 32
  store i8 123, ptr %31, align 1, !tbaa !21
  %32 = getelementptr i8, ptr %23, i64 33
  tail call void @llvm.memcpy.p0.p0.i64(ptr align 1 %32, ptr nonnull align 1 %1, i64 %3, i1 false)
  br label %_Py_NewRef.exit

._crit_edge.thread:                               ; preds = %19, %._crit_edge
  %33 = load i32, ptr %4, align 8, !tbaa !21
  %34 = icmp slt i32 %33, 0
  br i1 %34, label %_Py_NewRef.exit, label %35

35:                                               ; preds = %._crit_edge.thread
  %36 = add nuw i32 %33, 1
  store i32 %36, ptr %4, align 8, !tbaa !21
  br label %_Py_NewRef.exit

_Py_NewRef.exit:                                  ; preds = %35, %._crit_edge.thread, %30
  %.043 = phi i64 [ %22, %30 ], [ %3, %._crit_edge.thread ], [ %3, %35 ]
  %.038 = phi ptr [ %23, %30 ], [ %4, %._crit_edge.thread ], [ %4, %35 ]
  %37 = getelementptr inbounds nuw i8, ptr %.038, i64 32
  %38 = tail call ptr @PyUnicode_DecodeUTF8(ptr noundef nonnull %37, i64 noundef %.043, ptr noundef nonnull @.str.133) #12
  %39 = load i32, ptr %.038, align 8, !tbaa !21
  %.not.i61 = icmp sgt i32 %39, -1
  br i1 %.not.i61, label %40, label %Py_DECREF.exit62

40:                                               ; preds = %_Py_NewRef.exit
  %41 = add nsw i32 %39, -1
  store i32 %41, ptr %.038, align 8, !tbaa !21
  %42 = icmp eq i32 %41, 0
  br i1 %42, label %43, label %Py_DECREF.exit62

43:                                               ; preds = %40
  tail call void @_Py_Dealloc(ptr noundef nonnull %.038) #12
  br label %Py_DECREF.exit62

Py_DECREF.exit62:                                 ; preds = %_Py_NewRef.exit, %40, %43
  %.not54 = icmp eq ptr %38, null
  br i1 %.not54, label %44, label %49

44:                                               ; preds = %Py_DECREF.exit62
  %45 = load i32, ptr %4, align 8, !tbaa !21
  %.not.i59 = icmp sgt i32 %45, -1
  br i1 %.not.i59, label %46, label %Py_DECREF.exit

46:                                               ; preds = %44
  %47 = add nsw i32 %45, -1
  store i32 %47, ptr %4, align 8, !tbaa !21
  %48 = icmp eq i32 %47, 0
  br i1 %48, label %Py_DECREF.exit.sink.split, label %Py_DECREF.exit

49:                                               ; preds = %Py_DECREF.exit62
  %50 = load ptr, ptr %6, align 8, !tbaa !164
  %51 = tail call i32 @PyDict_SetItem(ptr noundef %50, ptr noundef nonnull %4, ptr noundef nonnull %38) #12
  %52 = icmp slt i32 %51, 0
  br i1 %52, label %53, label %Py_DECREF.exit64

53:                                               ; preds = %49
  %54 = load i32, ptr %4, align 8, !tbaa !21
  %.not.i57 = icmp sgt i32 %54, -1
  br i1 %.not.i57, label %55, label %Py_DECREF.exit58

55:                                               ; preds = %53
  %56 = add nsw i32 %54, -1
  store i32 %56, ptr %4, align 8, !tbaa !21
  %57 = icmp eq i32 %56, 0
  br i1 %57, label %58, label %Py_DECREF.exit58

58:                                               ; preds = %55
  tail call void @_Py_Dealloc(ptr noundef nonnull %4) #12
  br label %Py_DECREF.exit58

Py_DECREF.exit58:                                 ; preds = %53, %55, %58
  %59 = load i32, ptr %38, align 8, !tbaa !21
  %.not.i55 = icmp sgt i32 %59, -1
  br i1 %.not.i55, label %60, label %Py_DECREF.exit

60:                                               ; preds = %Py_DECREF.exit58
  %61 = add nsw i32 %59, -1
  store i32 %61, ptr %38, align 8, !tbaa !21
  %62 = icmp eq i32 %61, 0
  br i1 %62, label %Py_DECREF.exit.sink.split, label %Py_DECREF.exit

Py_DECREF.exit64:                                 ; preds = %12, %9, %49, %_Py_XNewRef.exit
  %.040 = phi ptr [ null, %_Py_XNewRef.exit ], [ %38, %49 ], [ %8, %9 ], [ %8, %12 ]
  %63 = load i32, ptr %4, align 8, !tbaa !21
  %.not.i = icmp sgt i32 %63, -1
  br i1 %.not.i, label %64, label %Py_DECREF.exit

64:                                               ; preds = %Py_DECREF.exit64
  %65 = add nsw i32 %63, -1
  store i32 %65, ptr %4, align 8, !tbaa !21
  %66 = icmp eq i32 %65, 0
  br i1 %66, label %Py_DECREF.exit.sink.split, label %Py_DECREF.exit

Py_DECREF.exit.sink.split:                        ; preds = %64, %60, %46, %27
  %.sink = phi ptr [ %4, %27 ], [ %4, %46 ], [ %38, %60 ], [ %4, %64 ]
  %.041.ph = phi ptr [ null, %27 ], [ null, %46 ], [ null, %60 ], [ %.040, %64 ]
  tail call void @_Py_Dealloc(ptr noundef nonnull %.sink) #12
  br label %Py_DECREF.exit

Py_DECREF.exit:                                   ; preds = %Py_DECREF.exit.sink.split, %60, %Py_DECREF.exit58, %46, %44, %27, %25, %64, %Py_DECREF.exit64, %2
  %.041 = phi ptr [ null, %2 ], [ %.040, %Py_DECREF.exit64 ], [ %.040, %64 ], [ null, %25 ], [ null, %27 ], [ null, %44 ], [ null, %46 ], [ null, %Py_DECREF.exit58 ], [ null, %60 ], [ %.041.ph, %Py_DECREF.exit.sink.split ]
  ret ptr %.041
}